; Function Attrs: mustprogress uwtable
define internal fastcc noundef zeroext i1 @_ZN32pxrInternal_v0_24__pxrReserved__L15_StringToDoubleERKNSt7__cxx1112basic_stringIcSt11char_traitsIcESaIcEEERd(ptr noundef nonnull align 8 dereferenceable(32) %0, ptr noundef nonnull writeonly align 8 captures(none) dereferenceable(8) %1) unnamed_addr #4 personality ptr @__gxx_personality_v0 {
  %3 = alloca ptr, align 8
  %4 = tail call noundef ptr @_ZNKSt7__cxx1112basic_stringIcSt11char_traitsIcESaIcEE5c_strEv(ptr noundef nonnull align 8 dereferenceable(32) %0) #18
  call void @llvm.lifetime.start.p0(i64 8, ptr nonnull %3)
  %5 = tail call ptr @__errno_location() #19
  %6 = load i32, ptr %5, align 4
  store i32 0, ptr %5, align 4
  %7 = call noundef double @strtod(ptr noundef %4, ptr noundef nonnull %3)
  %8 = load ptr, ptr %3, align 8
  %9 = icmp eq ptr %8, %4
  br i1 %9, label %10, label %17

10:                                               ; preds = %2
  invoke void @_ZSt24__throw_invalid_argumentPKc(ptr noundef nonnull @.str.5) #20
          to label %11 unwind label %12

11:                                               ; preds = %10
  unreachable

12:                                               ; preds = %.critedge.i.i, %10
  %13 = landingpad { ptr, i32 }
          cleanup
          catch ptr @_ZTISt9exception
  %14 = load i32, ptr %5, align 4
  %15 = icmp eq i32 %14, 0
  br i1 %15, label %16, label %.body

16:                                               ; preds = %12
  store i32 %6, ptr %5, align 4
  br label %.body

17:                                               ; preds = %2
  %18 = load i32, ptr %5, align 4
  %19 = icmp eq i32 %18, 34
  br i1 %19, label %.critedge.i.i, label %21

.critedge.i.i:                                    ; preds = %17
  invoke void @_ZSt20__throw_out_of_rangePKc(ptr noundef nonnull @.str.5) #20
          to label %20 unwind label %12

20:                                               ; preds = %.critedge.i.i
  unreachable

21:                                               ; preds = %17
  %22 = ptrtoint ptr %8 to i64
  %23 = ptrtoint ptr %4 to i64
  %24 = sub i64 %22, %23
  %25 = icmp eq i32 %18, 0
  br i1 %25, label %26, label %27

26:                                               ; preds = %21
  store i32 %6, ptr %5, align 4
  br label %27

27:                                               ; preds = %26, %21
  call void @llvm.lifetime.end.p0(i64 8, ptr nonnull %3)
  %28 = tail call noundef i64 @_ZNKSt7__cxx1112basic_stringIcSt11char_traitsIcESaIcEE4sizeEv(ptr noundef nonnull align 8 dereferenceable(32) %0) #18
  %.not = icmp eq i64 %24, %28
  br i1 %.not, label %35, label %36

.body:                                            ; preds = %12, %16
  %29 = extractvalue { ptr, i32 } %13, 1
  %30 = tail call i32 @llvm.eh.typeid.for.p0(ptr nonnull @_ZTISt9exception) #18
  %31 = icmp eq i32 %29, %30
  br i1 %31, label %32, label %37

32:                                               ; preds = %.body
  %33 = extractvalue { ptr, i32 } %13, 0
  %34 = tail call ptr @__cxa_begin_catch(ptr %33) #18
  tail call void @__cxa_end_catch()
  br label %36

35:                                               ; preds = %27
  store double %7, ptr %1, align 8
  br label %36

36:                                               ; preds = %27, %35, %32
  %.0 = phi i1 [ true, %35 ], [ false, %32 ], [ false, %27 ]
  ret i1 %.0

37:                                               ; preds = %.body
  resume { ptr, i32 } %13
}